; Function Attrs: uwtable
define void @_ZThn1448_N3zmq15tcp_connecter_t11timer_eventEi(ptr noundef %0, i32 noundef %1) unnamed_addr #11 align 2 {
  %3 = getelementptr inbounds i8, ptr %0, i64 -1448
  %4 = icmp eq i32 %1, 2
  br i1 %4, label %5, label %7

5:                                                ; preds = %2
  %6 = getelementptr inbounds nuw i8, ptr %0, i64 96
  store i8 0, ptr %6, align 8, !tbaa !6
  tail call void @_ZN3zmq23stream_connecter_base_t9rm_handleEv(ptr noundef nonnull align 8 dereferenceable(1552) %3)
  tail call void @_ZN3zmq23stream_connecter_base_t5closeEv(ptr noundef nonnull align 8 dereferenceable(1552) %3)
  tail call void @_ZN3zmq23stream_connecter_base_t19add_reconnect_timerEv(ptr noundef nonnull align 8 dereferenceable(1552) %3)
  br label %_ZN3zmq15tcp_connecter_t11timer_eventEi.exit

7:                                                ; preds = %2
  tail call void @_ZN3zmq23stream_connecter_base_t11timer_eventEi(ptr noundef nonnull align 8 dereferenceable(1552) %3, i32 noundef %1)
  br label %_ZN3zmq15tcp_connecter_t11timer_eventEi.exit

_ZN3zmq15tcp_connecter_t11timer_eventEi.exit:     ; preds = %5, %7
  ret void
}